target datalayout = "e-m:e-p270:32:32-p271:32:32-p272:64:64-i64:64-i128:128-f80:128-n8:16:32:64-S128"
target triple = "x86_64-pc-linux-gnu"

%"struct.duckdb_brotli::HistogramDistance" = type { [544 x i32], i64, double }

; Function Attrs: alwaysinline mustprogress nounwind uwtable
define internal noundef i64 @_ZL17brotli_min_size_tmm(i64 noundef %0, i64 noundef %1) #3 {
  %3 = alloca i64, align 8
  %4 = alloca i64, align 8
  store i64 %0, ptr %3, align 8, !tbaa !12
  store i64 %1, ptr %4, align 8, !tbaa !12
  %5 = load i64, ptr %3, align 8, !tbaa !12
  %6 = load i64, ptr %4, align 8, !tbaa !12
  %7 = icmp ult i64 %5, %6
  br i1 %7, label %8, label %10

8:                                                ; preds = %2
  %9 = load i64, ptr %3, align 8, !tbaa !12
  br label %12

10:                                               ; preds = %2
  %11 = load i64, ptr %4, align 8, !tbaa !12
  br label %12

12:                                               ; preds = %10, %8
  %13 = phi i64 [ %9, %8 ], [ %11, %10 ]
  ret i64 %13
}

; Function Attrs: mustprogress uwtable
define void @_ZN13duckdb_brotli31BrotliClusterHistogramsDistanceEPNS_13MemoryManagerEPKNS_17HistogramDistanceEmmPS2_PmPj(ptr noundef %0, ptr noundef %1, i64 noundef %2, i64 noundef %3, ptr noundef %4, ptr noundef %5, ptr noundef %6) #0 {
  %8 = alloca ptr, align 8
  %9 = alloca ptr, align 8
  %10 = alloca i64, align 8
  %11 = alloca i64, align 8
  %12 = alloca ptr, align 8
  %13 = alloca ptr, align 8
  %14 = alloca ptr, align 8
  %15 = alloca ptr, align 8
  %16 = alloca ptr, align 8
  %17 = alloca i64, align 8
  %18 = alloca i64, align 8
  %19 = alloca i64, align 8
  %20 = alloca ptr, align 8
  %21 = alloca ptr, align 8
  %22 = alloca i64, align 8
  %23 = alloca i64, align 8
  %24 = alloca i64, align 8
  %25 = alloca i64, align 8
  %26 = alloca i64, align 8
  %27 = alloca i64, align 8
  %28 = alloca ptr, align 8
  store ptr %0, ptr %8, align 8, !tbaa !44
  store ptr %1, ptr %9, align 8, !tbaa !82
  store i64 %2, ptr %10, align 8, !tbaa !12
  store i64 %3, ptr %11, align 8, !tbaa !12
  store ptr %4, ptr %12, align 8, !tbaa !82
  store ptr %5, ptr %13, align 8, !tbaa !16
  store ptr %6, ptr %14, align 8, !tbaa !8
  call void @llvm.lifetime.start.p0(i64 8, ptr %15) #9
  %29 = load i64, ptr %10, align 8, !tbaa !12
  %30 = icmp ugt i64 %29, 0
  br i1 %30, label %31, label %36

31:                                               ; preds = %7
  %32 = load ptr, ptr %8, align 8, !tbaa !44
  %33 = load i64, ptr %10, align 8, !tbaa !12
  %34 = mul i64 %33, 4
  %35 = call noundef ptr @_ZN13duckdb_brotli14BrotliAllocateEPNS_13MemoryManagerEm(ptr noundef %32, i64 noundef %34)
  br label %37

36:                                               ; preds = %7
  br label %37

37:                                               ; preds = %36, %31
  %38 = phi ptr [ %35, %31 ], [ null, %36 ]
  store ptr %38, ptr %15, align 8, !tbaa !8
  call void @llvm.lifetime.start.p0(i64 8, ptr %16) #9
  %39 = load i64, ptr %10, align 8, !tbaa !12
  %40 = icmp ugt i64 %39, 0
  br i1 %40, label %41, label %46

41:                                               ; preds = %37
  %42 = load ptr, ptr %8, align 8, !tbaa !44
  %43 = load i64, ptr %10, align 8, !tbaa !12
  %44 = mul i64 %43, 4
  %45 = call noundef ptr @_ZN13duckdb_brotli14BrotliAllocateEPNS_13MemoryManagerEm(ptr noundef %42, i64 noundef %44)
  br label %47

46:                                               ; preds = %37
  br label %47

47:                                               ; preds = %46, %41
  %48 = phi ptr [ %45, %41 ], [ null, %46 ]
  store ptr %48, ptr %16, align 8, !tbaa !8
  call void @llvm.lifetime.start.p0(i64 8, ptr %17) #9
  store i64 0, ptr %17, align 8, !tbaa !12
  call void @llvm.lifetime.start.p0(i64 8, ptr %18) #9
  store i64 64, ptr %18, align 8, !tbaa !12
  call void @llvm.lifetime.start.p0(i64 8, ptr %19) #9
  store i64 2048, ptr %19, align 8, !tbaa !12
  call void @llvm.lifetime.start.p0(i64 8, ptr %20) #9
  %49 = load i64, ptr %19, align 8, !tbaa !12
  %50 = add i64 %49, 1
  %51 = icmp ugt i64 %50, 0
  br i1 %51, label %52, label %58

52:                                               ; preds = %47
  %53 = load ptr, ptr %8, align 8, !tbaa !44
  %54 = load i64, ptr %19, align 8, !tbaa !12
  %55 = add i64 %54, 1
  %56 = mul i64 %55, 24
  %57 = call noundef ptr @_ZN13duckdb_brotli14BrotliAllocateEPNS_13MemoryManagerEm(ptr noundef %53, i64 noundef %56)
  br label %59

58:                                               ; preds = %47
  br label %59

59:                                               ; preds = %58, %52
  %60 = phi ptr [ %57, %52 ], [ null, %58 ]
  store ptr %60, ptr %20, align 8, !tbaa !14
  call void @llvm.lifetime.start.p0(i64 8, ptr %21) #9
  %61 = load ptr, ptr %8, align 8, !tbaa !44
  %62 = call noundef ptr @_ZN13duckdb_brotli14BrotliAllocateEPNS_13MemoryManagerEm(ptr noundef %61, i64 noundef 2192)
  store ptr %62, ptr %21, align 8, !tbaa !82
  call void @llvm.lifetime.start.p0(i64 8, ptr %22) #9
  store i64 0, ptr %22, align 8, !tbaa !12
  br label %63

63:                                               ; preds = %71, %59
  %64 = load i64, ptr %22, align 8, !tbaa !12
  %65 = load i64, ptr %10, align 8, !tbaa !12
  %66 = icmp ult i64 %64, %65
  br i1 %66, label %67, label %74

67:                                               ; preds = %63
  %68 = load ptr, ptr %15, align 8, !tbaa !8
  %69 = load i64, ptr %22, align 8, !tbaa !12
  %70 = getelementptr inbounds nuw i32, ptr %68, i64 %69
  store i32 1, ptr %70, align 4, !tbaa !10
  br label %71

71:                                               ; preds = %67
  %72 = load i64, ptr %22, align 8, !tbaa !12
  %73 = add i64 %72, 1
  store i64 %73, ptr %22, align 8, !tbaa !12
  br label %63, !llvm.loop !104

74:                                               ; preds = %63
  store i64 0, ptr %22, align 8, !tbaa !12
  br label %75

75:                                               ; preds = %99, %74
  %76 = load i64, ptr %22, align 8, !tbaa !12
  %77 = load i64, ptr %10, align 8, !tbaa !12
  %78 = icmp ult i64 %76, %77
  br i1 %78, label %79, label %102

79:                                               ; preds = %75
  %80 = load ptr, ptr %9, align 8, !tbaa !82
  %81 = load i64, ptr %22, align 8, !tbaa !12
  %82 = getelementptr inbounds nuw %"struct.duckdb_brotli::HistogramDistance", ptr %80, i64 %81
  %83 = load ptr, ptr %12, align 8, !tbaa !82
  %84 = load i64, ptr %22, align 8, !tbaa !12
  %85 = getelementptr inbounds nuw %"struct.duckdb_brotli::HistogramDistance", ptr %83, i64 %84
  call void @llvm.memcpy.p0.p0.i64(ptr align 8 %85, ptr align 8 %82, i64 2192, i1 false), !tbaa.struct !87
  %86 = load ptr, ptr %9, align 8, !tbaa !82
  %87 = load i64, ptr %22, align 8, !tbaa !12
  %88 = getelementptr inbounds nuw %"struct.duckdb_brotli::HistogramDistance", ptr %86, i64 %87
  %89 = call noundef double @_ZN13duckdb_brotli28BrotliPopulationCostDistanceEPKNS_17HistogramDistanceE(ptr noundef %88)
  %90 = load ptr, ptr %12, align 8, !tbaa !82
  %91 = load i64, ptr %22, align 8, !tbaa !12
  %92 = getelementptr inbounds nuw %"struct.duckdb_brotli::HistogramDistance", ptr %90, i64 %91
  %93 = getelementptr inbounds nuw %"struct.duckdb_brotli::HistogramDistance", ptr %92, i32 0, i32 2
  store double %89, ptr %93, align 8, !tbaa !84
  %94 = load i64, ptr %22, align 8, !tbaa !12
  %95 = trunc i64 %94 to i32
  %96 = load ptr, ptr %14, align 8, !tbaa !8
  %97 = load i64, ptr %22, align 8, !tbaa !12
  %98 = getelementptr inbounds nuw i32, ptr %96, i64 %97
  store i32 %95, ptr %98, align 4, !tbaa !10
  br label %99

99:                                               ; preds = %79
  %100 = load i64, ptr %22, align 8, !tbaa !12
  %101 = add i64 %100, 1
  store i64 %101, ptr %22, align 8, !tbaa !12
  br label %75, !llvm.loop !105

102:                                              ; preds = %75
  store i64 0, ptr %22, align 8, !tbaa !12
  br label %103

103:                                              ; preds = %148, %102
  %104 = load i64, ptr %22, align 8, !tbaa !12
  %105 = load i64, ptr %10, align 8, !tbaa !12
  %106 = icmp ult i64 %104, %105
  br i1 %106, label %107, label %151

107:                                              ; preds = %103
  call void @llvm.lifetime.start.p0(i64 8, ptr %23) #9
  %108 = load i64, ptr %10, align 8, !tbaa !12
  %109 = load i64, ptr %22, align 8, !tbaa !12
  %110 = sub i64 %108, %109
  %111 = call noundef i64 @_ZL17brotli_min_size_tmm(i64 noundef %110, i64 noundef 64)
  store i64 %111, ptr %23, align 8, !tbaa !12
  call void @llvm.lifetime.start.p0(i64 8, ptr %24) #9
  call void @llvm.lifetime.start.p0(i64 8, ptr %25) #9
  store i64 0, ptr %25, align 8, !tbaa !12
  br label %112

112:                                              ; preds = %126, %107
  %113 = load i64, ptr %25, align 8, !tbaa !12
  %114 = load i64, ptr %23, align 8, !tbaa !12
  %115 = icmp ult i64 %113, %114
  br i1 %115, label %116, label %129

116:                                              ; preds = %112
  %117 = load i64, ptr %22, align 8, !tbaa !12
  %118 = load i64, ptr %25, align 8, !tbaa !12
  %119 = add i64 %117, %118
  %120 = trunc i64 %119 to i32
  %121 = load ptr, ptr %16, align 8, !tbaa !8
  %122 = load i64, ptr %17, align 8, !tbaa !12
  %123 = load i64, ptr %25, align 8, !tbaa !12
  %124 = add i64 %122, %123
  %125 = getelementptr inbounds nuw i32, ptr %121, i64 %124
  store i32 %120, ptr %125, align 4, !tbaa !10
  br label %126

126:                                              ; preds = %116
  %127 = load i64, ptr %25, align 8, !tbaa !12
  %128 = add i64 %127, 1
  store i64 %128, ptr %25, align 8, !tbaa !12
  br label %112, !llvm.loop !106

129:                                              ; preds = %112
  %130 = load ptr, ptr %12, align 8, !tbaa !82
  %131 = load ptr, ptr %21, align 8, !tbaa !82
  %132 = load ptr, ptr %15, align 8, !tbaa !8
  %133 = load ptr, ptr %14, align 8, !tbaa !8
  %134 = load i64, ptr %22, align 8, !tbaa !12
  %135 = getelementptr inbounds nuw i32, ptr %133, i64 %134
  %136 = load ptr, ptr %16, align 8, !tbaa !8
  %137 = load i64, ptr %17, align 8, !tbaa !12
  %138 = getelementptr inbounds nuw i32, ptr %136, i64 %137
  %139 = load ptr, ptr %20, align 8, !tbaa !14
  %140 = load i64, ptr %23, align 8, !tbaa !12
  %141 = load i64, ptr %23, align 8, !tbaa !12
  %142 = load i64, ptr %11, align 8, !tbaa !12
  %143 = load i64, ptr %19, align 8, !tbaa !12
  %144 = call noundef i64 @_ZN13duckdb_brotli30BrotliHistogramCombineDistanceEPNS_17HistogramDistanceES1_PjS2_S2_PNS_13HistogramPairEmmmm(ptr noundef %130, ptr noundef %131, ptr noundef %132, ptr noundef %135, ptr noundef %138, ptr noundef %139, i64 noundef %140, i64 noundef %141, i64 noundef %142, i64 noundef %143)
  store i64 %144, ptr %24, align 8, !tbaa !12
  %145 = load i64, ptr %24, align 8, !tbaa !12
  %146 = load i64, ptr %17, align 8, !tbaa !12
  %147 = add i64 %146, %145
  store i64 %147, ptr %17, align 8, !tbaa !12
  call void @llvm.lifetime.end.p0(i64 8, ptr %25) #9
  call void @llvm.lifetime.end.p0(i64 8, ptr %24) #9
  call void @llvm.lifetime.end.p0(i64 8, ptr %23) #9
  br label %148

148:                                              ; preds = %129
  %149 = load i64, ptr %22, align 8, !tbaa !12
  %150 = add i64 %149, 64
  store i64 %150, ptr %22, align 8, !tbaa !12
  br label %103, !llvm.loop !107

151:                                              ; preds = %103
  call void @llvm.lifetime.start.p0(i64 8, ptr %26) #9
  %152 = load i64, ptr %17, align 8, !tbaa !12
  %153 = mul i64 64, %152
  %154 = load i64, ptr %17, align 8, !tbaa !12
  %155 = udiv i64 %154, 2
  %156 = load i64, ptr %17, align 8, !tbaa !12
  %157 = mul i64 %155, %156
  %158 = call noundef i64 @_ZL17brotli_min_size_tmm(i64 noundef %153, i64 noundef %157)
  store i64 %158, ptr %26, align 8, !tbaa !12
  %159 = load i64, ptr %19, align 8, !tbaa !12
  %160 = load i64, ptr %26, align 8, !tbaa !12
  %161 = add i64 %160, 1
  %162 = icmp ult i64 %159, %161
  br i1 %162, label %163, label %204

163:                                              ; preds = %151
  call void @llvm.lifetime.start.p0(i64 8, ptr %27) #9
  %164 = load i64, ptr %19, align 8, !tbaa !12
  %165 = icmp eq i64 %164, 0
  br i1 %165, label %166, label %169

166:                                              ; preds = %163
  %167 = load i64, ptr %26, align 8, !tbaa !12
  %168 = add i64 %167, 1
  br label %171

169:                                              ; preds = %163
  %170 = load i64, ptr %19, align 8, !tbaa !12
  br label %171

171:                                              ; preds = %169, %166
  %172 = phi i64 [ %168, %166 ], [ %170, %169 ]
  store i64 %172, ptr %27, align 8, !tbaa !12
  call void @llvm.lifetime.start.p0(i64 8, ptr %28) #9
  br label %173

173:                                              ; preds = %178, %171
  %174 = load i64, ptr %27, align 8, !tbaa !12
  %175 = load i64, ptr %26, align 8, !tbaa !12
  %176 = add i64 %175, 1
  %177 = icmp ult i64 %174, %176
  br i1 %177, label %178, label %181

178:                                              ; preds = %173
  %179 = load i64, ptr %27, align 8, !tbaa !12
  %180 = mul i64 %179, 2
  store i64 %180, ptr %27, align 8, !tbaa !12
  br label %173, !llvm.loop !108

181:                                              ; preds = %173
  %182 = load i64, ptr %27, align 8, !tbaa !12
  %183 = icmp ugt i64 %182, 0
  br i1 %183, label %184, label %189

184:                                              ; preds = %181
  %185 = load ptr, ptr %8, align 8, !tbaa !44
  %186 = load i64, ptr %27, align 8, !tbaa !12
  %187 = mul i64 %186, 24
  %188 = call noundef ptr @_ZN13duckdb_brotli14BrotliAllocateEPNS_13MemoryManagerEm(ptr noundef %185, i64 noundef %187)
  br label %190

189:                                              ; preds = %181
  br label %190

190:                                              ; preds = %189, %184
  %191 = phi ptr [ %188, %184 ], [ null, %189 ]
  store ptr %191, ptr %28, align 8, !tbaa !14
  %192 = load i64, ptr %19, align 8, !tbaa !12
  %193 = icmp ne i64 %192, 0
  br i1 %193, label %194, label %199

194:                                              ; preds = %190
  %195 = load ptr, ptr %28, align 8, !tbaa !14
  %196 = load ptr, ptr %20, align 8, !tbaa !14
  %197 = load i64, ptr %19, align 8, !tbaa !12
  %198 = mul i64 %197, 24
  call void @llvm.memcpy.p0.p0.i64(ptr align 8 %195, ptr align 8 %196, i64 %198, i1 false)
  br label %199

199:                                              ; preds = %194, %190
  %200 = load ptr, ptr %8, align 8, !tbaa !44
  %201 = load ptr, ptr %20, align 8, !tbaa !14
  call void @_ZN13duckdb_brotli10BrotliFreeEPNS_13MemoryManagerEPv(ptr noundef %200, ptr noundef %201)
  store ptr null, ptr %20, align 8, !tbaa !14
  %202 = load ptr, ptr %28, align 8, !tbaa !14
  store ptr %202, ptr %20, align 8, !tbaa !14
  %203 = load i64, ptr %27, align 8, !tbaa !12
  store i64 %203, ptr %19, align 8, !tbaa !12
  call void @llvm.lifetime.end.p0(i64 8, ptr %28) #9
  call void @llvm.lifetime.end.p0(i64 8, ptr %27) #9
  br label %204

204:                                              ; preds = %199, %151
  %205 = load ptr, ptr %12, align 8, !tbaa !82
  %206 = load ptr, ptr %21, align 8, !tbaa !82
  %207 = load ptr, ptr %15, align 8, !tbaa !8
  %208 = load ptr, ptr %14, align 8, !tbaa !8
  %209 = load ptr, ptr %16, align 8, !tbaa !8
  %210 = load ptr, ptr %20, align 8, !tbaa !14
  %211 = load i64, ptr %17, align 8, !tbaa !12
  %212 = load i64, ptr %10, align 8, !tbaa !12
  %213 = load i64, ptr %11, align 8, !tbaa !12
  %214 = load i64, ptr %26, align 8, !tbaa !12
  %215 = call noundef i64 @_ZN13duckdb_brotli30BrotliHistogramCombineDistanceEPNS_17HistogramDistanceES1_PjS2_S2_PNS_13HistogramPairEmmmm(ptr noundef %205, ptr noundef %206, ptr noundef %207, ptr noundef %208, ptr noundef %209, ptr noundef %210, i64 noundef %211, i64 noundef %212, i64 noundef %213, i64 noundef %214)
  store i64 %215, ptr %17, align 8, !tbaa !12
  call void @llvm.lifetime.end.p0(i64 8, ptr %26) #9
  %216 = load ptr, ptr %8, align 8, !tbaa !44
  %217 = load ptr, ptr %20, align 8, !tbaa !14
  call void @_ZN13duckdb_brotli10BrotliFreeEPNS_13MemoryManagerEPv(ptr noundef %216, ptr noundef %217)
  store ptr null, ptr %20, align 8, !tbaa !14
  %218 = load ptr, ptr %8, align 8, !tbaa !44
  %219 = load ptr, ptr %15, align 8, !tbaa !8
  call void @_ZN13duckdb_brotli10BrotliFreeEPNS_13MemoryManagerEPv(ptr noundef %218, ptr noundef %219)
  store ptr null, ptr %15, align 8, !tbaa !8
  %220 = load ptr, ptr %9, align 8, !tbaa !82
  %221 = load i64, ptr %10, align 8, !tbaa !12
  %222 = load ptr, ptr %16, align 8, !tbaa !8
  %223 = load i64, ptr %17, align 8, !tbaa !12
  %224 = load ptr, ptr %12, align 8, !tbaa !82
  %225 = load ptr, ptr %21, align 8, !tbaa !82
  %226 = load ptr, ptr %14, align 8, !tbaa !8
  call void @_ZN13duckdb_brotli28BrotliHistogramRemapDistanceEPKNS_17HistogramDistanceEmPKjmPS0_S5_Pj(ptr noundef %220, i64 noundef %221, ptr noundef %222, i64 noundef %223, ptr noundef %224, ptr noundef %225, ptr noundef %226)
  %227 = load ptr, ptr %8, align 8, !tbaa !44
  %228 = load ptr, ptr %21, align 8, !tbaa !82
  call void @_ZN13duckdb_brotli10BrotliFreeEPNS_13MemoryManagerEPv(ptr noundef %227, ptr noundef %228)
  store ptr null, ptr %21, align 8, !tbaa !82
  %229 = load ptr, ptr %8, align 8, !tbaa !44
  %230 = load ptr, ptr %16, align 8, !tbaa !8
  call void @_ZN13duckdb_brotli10BrotliFreeEPNS_13MemoryManagerEPv(ptr noundef %229, ptr noundef %230)
  store ptr null, ptr %16, align 8, !tbaa !8
  %231 = load ptr, ptr %8, align 8, !tbaa !44
  %232 = load ptr, ptr %12, align 8, !tbaa !82
  %233 = load ptr, ptr %14, align 8, !tbaa !8
  %234 = load i64, ptr %10, align 8, !tbaa !12
  %235 = call noundef i64 @_ZN13duckdb_brotli30BrotliHistogramReindexDistanceEPNS_13MemoryManagerEPNS_17HistogramDistanceEPjm(ptr noundef %231, ptr noundef %232, ptr noundef %233, i64 noundef %234)
  %236 = load ptr, ptr %13, align 8, !tbaa !16
  store i64 %235, ptr %236, align 8, !tbaa !12
  call void @llvm.lifetime.end.p0(i64 8, ptr %22) #9
  call void @llvm.lifetime.end.p0(i64 8, ptr %21) #9
  call void @llvm.lifetime.end.p0(i64 8, ptr %20) #9
  call void @llvm.lifetime.end.p0(i64 8, ptr %19) #9
  call void @llvm.lifetime.end.p0(i64 8, ptr %18) #9
  call void @llvm.lifetime.end.p0(i64 8, ptr %17) #9
  call void @llvm.lifetime.end.p0(i64 8, ptr %16) #9
  call void @llvm.lifetime.end.p0(i64 8, ptr %15) #9
  ret void
}