; Function Attrs: mustprogress uwtable
define void @_ZN13duckdb_brotli31BrotliClusterHistogramsDistanceEPNS_13MemoryManagerEPKNS_17HistogramDistanceEmmPS2_PmPj(ptr noundef %0, ptr noundef %1, i64 noundef %2, i64 noundef %3, ptr noundef captures(none) %4, ptr noundef writeonly captures(none) %5, ptr noundef captures(none) %6) local_unnamed_addr #0 {
  %.not = icmp eq i64 %2, 0
  br i1 %.not, label %.thread, label %8

8:                                                ; preds = %7
  %9 = shl i64 %2, 2
  %10 = tail call noundef ptr @_ZN13duckdb_brotli14BrotliAllocateEPNS_13MemoryManagerEm(ptr noundef %0, i64 noundef %9)
  %11 = tail call noundef ptr @_ZN13duckdb_brotli14BrotliAllocateEPNS_13MemoryManagerEm(ptr noundef %0, i64 noundef %9)
  br label %.thread

.thread:                                          ; preds = %7, %8
  %12 = phi ptr [ %10, %8 ], [ null, %7 ]
  %13 = phi ptr [ %11, %8 ], [ null, %7 ]
  %14 = tail call noundef ptr @_ZN13duckdb_brotli14BrotliAllocateEPNS_13MemoryManagerEm(ptr noundef %0, i64 noundef 49176)
  %15 = tail call noundef ptr @_ZN13duckdb_brotli14BrotliAllocateEPNS_13MemoryManagerEm(ptr noundef %0, i64 noundef 2192)
  br i1 %.not, label %._crit_edge127, label %.lr.ph

.lr.ph:                                           ; preds = %.thread, %.lr.ph
  %.0109119 = phi i64 [ %17, %.lr.ph ], [ 0, %.thread ]
  %16 = getelementptr inbounds nuw i32, ptr %12, i64 %.0109119
  store i32 1, ptr %16, align 4, !tbaa !3
  %17 = add nuw i64 %.0109119, 1
  %exitcond.not = icmp eq i64 %17, %2
  br i1 %exitcond.not, label %.lr.ph121, label %.lr.ph, !llvm.loop !90

.lr.ph121:                                        ; preds = %.lr.ph, %.lr.ph121
  %.1120 = phi i64 [ %24, %.lr.ph121 ], [ 0, %.lr.ph ]
  %18 = getelementptr inbounds nuw %"struct.duckdb_brotli::HistogramDistance", ptr %1, i64 %.1120
  %19 = getelementptr inbounds nuw %"struct.duckdb_brotli::HistogramDistance", ptr %4, i64 %.1120
  tail call void @llvm.memcpy.p0.p0.i64(ptr noundef nonnull align 8 dereferenceable(2192) %19, ptr noundef nonnull align 8 dereferenceable(2192) %18, i64 2192, i1 false), !tbaa.struct !73
  %20 = tail call noundef double @_ZN13duckdb_brotli28BrotliPopulationCostDistanceEPKNS_17HistogramDistanceE(ptr noundef nonnull %18)
  %21 = getelementptr inbounds nuw i8, ptr %19, i64 2184
  store double %20, ptr %21, align 8, !tbaa !70
  %22 = trunc i64 %.1120 to i32
  %23 = getelementptr inbounds nuw i32, ptr %6, i64 %.1120
  store i32 %22, ptr %23, align 4, !tbaa !3
  %24 = add nuw i64 %.1120, 1
  %exitcond132.not = icmp eq i64 %24, %2
  br i1 %exitcond132.not, label %.lr.ph123, label %.lr.ph121, !llvm.loop !91

.lr.ph123:                                        ; preds = %.lr.ph121, %._crit_edge
  %indvars.iv = phi i64 [ %indvars.iv.next, %._crit_edge ], [ %2, %.lr.ph121 ]
  %.0108125 = phi i64 [ %36, %._crit_edge ], [ 0, %.lr.ph121 ]
  %.2124 = phi i64 [ %37, %._crit_edge ], [ 0, %.lr.ph121 ]
  %umin = tail call i64 @llvm.umin.i64(i64 %indvars.iv, i64 64)
  %umax = tail call i64 @llvm.umax.i64(i64 %umin, i64 1)
  %25 = sub nuw i64 %2, %.2124
  %26 = tail call noundef i64 @llvm.umin.i64(i64 %25, i64 64)
  %27 = getelementptr i32, ptr %13, i64 %.0108125
  br label %28

28:                                               ; preds = %.lr.ph123, %28
  %.0107122 = phi i64 [ 0, %.lr.ph123 ], [ %32, %28 ]
  %29 = add nuw nsw i64 %.0107122, %.2124
  %30 = trunc i64 %29 to i32
  %31 = getelementptr i32, ptr %27, i64 %.0107122
  store i32 %30, ptr %31, align 4, !tbaa !3
  %32 = add nuw nsw i64 %.0107122, 1
  %exitcond133.not = icmp eq i64 %32, %umax
  br i1 %exitcond133.not, label %._crit_edge, label %28, !llvm.loop !92

._crit_edge:                                      ; preds = %28
  %33 = getelementptr inbounds nuw i32, ptr %6, i64 %.2124
  %34 = getelementptr inbounds nuw i32, ptr %13, i64 %.0108125
  %35 = tail call noundef i64 @_ZN13duckdb_brotli30BrotliHistogramCombineDistanceEPNS_17HistogramDistanceES1_PjS2_S2_PNS_13HistogramPairEmmmm(ptr noundef %4, ptr noundef %15, ptr noundef %12, ptr noundef %33, ptr noundef %34, ptr noundef %14, i64 noundef %26, i64 noundef %26, i64 noundef %3, i64 noundef 2048)
  %36 = add i64 %35, %.0108125
  %37 = add i64 %.2124, 64
  %38 = icmp ult i64 %37, %2
  %indvars.iv.next = add i64 %indvars.iv, -64
  br i1 %38, label %.lr.ph123, label %._crit_edge127, !llvm.loop !93

._crit_edge127:                                   ; preds = %._crit_edge, %.thread
  %.0108.lcssa = phi i64 [ 0, %.thread ], [ %36, %._crit_edge ]
  %39 = shl i64 %.0108.lcssa, 6
  %40 = lshr i64 %.0108.lcssa, 1
  %41 = mul i64 %40, %.0108.lcssa
  %42 = tail call noundef i64 @llvm.umin.i64(i64 %39, i64 %41)
  %43 = icmp ugt i64 %42, 2047
  br i1 %43, label %.preheader, label %48

.preheader:                                       ; preds = %._crit_edge127, %.preheader
  %.0 = phi i64 [ %44, %.preheader ], [ 2048, %._crit_edge127 ]
  %.not116 = icmp ugt i64 %.0, %42
  %44 = shl i64 %.0, 1
  br i1 %.not116, label %45, label %.preheader, !llvm.loop !94

45:                                               ; preds = %.preheader
  %46 = mul i64 %.0, 24
  %47 = tail call noundef ptr @_ZN13duckdb_brotli14BrotliAllocateEPNS_13MemoryManagerEm(ptr noundef %0, i64 noundef %46)
  tail call void @llvm.memcpy.p0.p0.i64(ptr noundef nonnull align 8 dereferenceable(49152) %47, ptr noundef nonnull align 8 dereferenceable(49152) %14, i64 49152, i1 false)
  tail call void @_ZN13duckdb_brotli10BrotliFreeEPNS_13MemoryManagerEPv(ptr noundef %0, ptr noundef nonnull %14)
  br label %48

48:                                               ; preds = %45, %._crit_edge127
  %.0110 = phi ptr [ %47, %45 ], [ %14, %._crit_edge127 ]
  %49 = tail call noundef i64 @_ZN13duckdb_brotli30BrotliHistogramCombineDistanceEPNS_17HistogramDistanceES1_PjS2_S2_PNS_13HistogramPairEmmmm(ptr noundef %4, ptr noundef %15, ptr noundef %12, ptr noundef %6, ptr noundef %13, ptr noundef %.0110, i64 noundef %.0108.lcssa, i64 noundef %2, i64 noundef %3, i64 noundef %42)
  tail call void @_ZN13duckdb_brotli10BrotliFreeEPNS_13MemoryManagerEPv(ptr noundef %0, ptr noundef %.0110)
  tail call void @_ZN13duckdb_brotli10BrotliFreeEPNS_13MemoryManagerEPv(ptr noundef %0, ptr noundef %12)
  tail call void @_ZN13duckdb_brotli28BrotliHistogramRemapDistanceEPKNS_17HistogramDistanceEmPKjmPS0_S5_Pj(ptr noundef %1, i64 noundef %2, ptr noundef %13, i64 noundef %49, ptr noundef %4, ptr noundef %15, ptr noundef %6)
  tail call void @_ZN13duckdb_brotli10BrotliFreeEPNS_13MemoryManagerEPv(ptr noundef %0, ptr noundef %15)
  tail call void @_ZN13duckdb_brotli10BrotliFreeEPNS_13MemoryManagerEPv(ptr noundef %0, ptr noundef %13)
  %50 = tail call noundef i64 @_ZN13duckdb_brotli30BrotliHistogramReindexDistanceEPNS_13MemoryManagerEPNS_17HistogramDistanceEPjm(ptr noundef %0, ptr noundef %4, ptr noundef %6, i64 noundef %2)
  store i64 %50, ptr %5, align 8, !tbaa !13
  ret void
}